target datalayout = "e-m:e-p270:32:32-p271:32:32-p272:64:64-i64:64-i128:128-f80:128-n8:16:32:64-S128"
target triple = "x86_64-pc-linux-gnu"

%struct.CallbackData = type { i8, i32 }
%struct.buf_mem_st = type { i64, ptr, i64, i64 }

@.str.16 = private unnamed_addr constant [39 x i8] c"../openssl/test/bio_pw_callback_test.c\00", align 1
@original_pkey = internal global ptr null, align 8
@callback_test = internal global i32 0, align 4
@.str.36 = private unnamed_addr constant [9 x i8] c"enc_data\00", align 1
@.str.37 = private unnamed_addr constant [14 x i8] c"enc_data_size\00", align 1
@.str.38 = private unnamed_addr constant [27 x i8] c"bio = BIO_new(BIO_s_mem())\00", align 1
@.str.39 = private unnamed_addr constant [6 x i8] c"w_ret\00", align 1
@.str.40 = private unnamed_addr constant [2 x i8] c"0\00", align 1
@.str.41 = private unnamed_addr constant [14 x i8] c"cb_data.magic\00", align 1
@.str.42 = private unnamed_addr constant [9 x i8] c"cb_magic\00", align 1
@.str.43 = private unnamed_addr constant [15 x i8] c"cb_data.result\00", align 1
@.str.44 = private unnamed_addr constant [2 x i8] c"1\00", align 1
@.str.50 = private unnamed_addr constant [47 x i8] c"bio = BIO_new_mem_buf(enc_data, enc_data_size)\00", align 1
@.str.51 = private unnamed_addr constant [6 x i8] c"r_ret\00", align 1

; Function Attrs: nounwind uwtable
define internal i32 @decrypt_key(ptr noundef %0, i32 noundef %1, i32 noundef %2, i32 noundef %3) #0 {
  %5 = alloca ptr, align 8
  %6 = alloca i32, align 4
  %7 = alloca i32, align 4
  %8 = alloca i32, align 4
  %9 = alloca %struct.CallbackData, align 4
  %10 = alloca ptr, align 8
  %11 = alloca ptr, align 8
  %12 = alloca ptr, align 8
  %13 = alloca i32, align 4
  store ptr %0, ptr %5, align 8, !tbaa !11
  store i32 %1, ptr %6, align 4, !tbaa !9
  store i32 %2, ptr %7, align 4, !tbaa !9
  store i32 %3, ptr %8, align 4, !tbaa !9
  call void @llvm.lifetime.start.p0(i64 8, ptr %9) #5
  call void @llvm.lifetime.start.p0(i64 8, ptr %10) #5
  store ptr null, ptr %10, align 8, !tbaa !16
  call void @llvm.lifetime.start.p0(i64 8, ptr %11) #5
  store ptr null, ptr %11, align 8, !tbaa !4
  call void @llvm.lifetime.start.p0(i64 8, ptr %12) #5
  store ptr null, ptr %12, align 8, !tbaa !16
  call void @llvm.lifetime.start.p0(i64 4, ptr %13) #5
  store i32 0, ptr %13, align 4, !tbaa !9
  %14 = load ptr, ptr %5, align 8, !tbaa !11
  %15 = load i32, ptr %6, align 4, !tbaa !9
  %16 = call ptr @BIO_new_mem_buf(ptr noundef %14, i32 noundef %15)
  store ptr %16, ptr %11, align 8, !tbaa !4
  %17 = call i32 @test_ptr(ptr noundef @.str.16, i32 noundef 209, ptr noundef @.str.50, ptr noundef %16)
  %18 = icmp ne i32 %17, 0
  br i1 %18, label %20, label %19

19:                                               ; preds = %4
  br label %58

20:                                               ; preds = %4
  %21 = getelementptr inbounds nuw %struct.CallbackData, ptr %9, i32 0, i32 0
  store i8 112, ptr %21, align 4, !tbaa !24
  %22 = getelementptr inbounds nuw %struct.CallbackData, ptr %9, i32 0, i32 1
  store i32 0, ptr %22, align 4, !tbaa !26
  %23 = load i32, ptr %7, align 4, !tbaa !9
  switch i32 %23, label %30 [
    i32 0, label %24
    i32 1, label %27
  ]

24:                                               ; preds = %20
  %25 = load ptr, ptr %11, align 8, !tbaa !4
  %26 = call ptr @PEM_read_bio_PrivateKey(ptr noundef %25, ptr noundef %12, ptr noundef @read_callback, ptr noundef %9)
  store ptr %26, ptr %10, align 8, !tbaa !16
  br label %30

27:                                               ; preds = %20
  %28 = load ptr, ptr %11, align 8, !tbaa !4
  %29 = call ptr @d2i_PKCS8PrivateKey_bio(ptr noundef %28, ptr noundef %12, ptr noundef @read_callback, ptr noundef %9)
  store ptr %29, ptr %10, align 8, !tbaa !16
  br label %30

30:                                               ; preds = %20, %27, %24
  %31 = load i32, ptr %8, align 4, !tbaa !9
  %32 = icmp eq i32 %31, 1
  br i1 %32, label %33, label %39

33:                                               ; preds = %30
  %34 = load ptr, ptr %10, align 8, !tbaa !16
  %35 = call i32 @test_ptr(ptr noundef @.str.16, i32 noundef 222, ptr noundef @.str.51, ptr noundef %34)
  %36 = icmp ne i32 %35, 0
  br i1 %36, label %38, label %37

37:                                               ; preds = %33
  br label %58

38:                                               ; preds = %33
  br label %45

39:                                               ; preds = %30
  %40 = load ptr, ptr %10, align 8, !tbaa !16
  %41 = call i32 @test_ptr_null(ptr noundef @.str.16, i32 noundef 225, ptr noundef @.str.51, ptr noundef %40)
  %42 = icmp ne i32 %41, 0
  br i1 %42, label %44, label %43

43:                                               ; preds = %39
  br label %58

44:                                               ; preds = %39
  br label %45

45:                                               ; preds = %44, %38
  %46 = getelementptr inbounds nuw %struct.CallbackData, ptr %9, i32 0, i32 0
  %47 = load i8, ptr %46, align 4, !tbaa !24
  %48 = call i32 @test_char_eq(ptr noundef @.str.16, i32 noundef 228, ptr noundef @.str.41, ptr noundef @.str.42, i8 noundef signext %47, i8 noundef signext 112)
  %49 = icmp ne i32 %48, 0
  br i1 %49, label %51, label %50

50:                                               ; preds = %45
  br label %58

51:                                               ; preds = %45
  %52 = getelementptr inbounds nuw %struct.CallbackData, ptr %9, i32 0, i32 1
  %53 = load i32, ptr %52, align 4, !tbaa !26
  %54 = call i32 @test_int_eq(ptr noundef @.str.16, i32 noundef 230, ptr noundef @.str.43, ptr noundef @.str.44, i32 noundef %53, i32 noundef 1)
  %55 = icmp ne i32 %54, 0
  br i1 %55, label %57, label %56

56:                                               ; preds = %51
  br label %58

57:                                               ; preds = %51
  store i32 1, ptr %13, align 4, !tbaa !9
  br label %58

58:                                               ; preds = %57, %56, %50, %43, %37, %19
  %59 = load ptr, ptr %12, align 8, !tbaa !16
  call void @EVP_PKEY_free(ptr noundef %59)
  %60 = load ptr, ptr %11, align 8, !tbaa !4
  %61 = call i32 @BIO_free(ptr noundef %60)
  %62 = load i32, ptr %13, align 4, !tbaa !9
  call void @llvm.lifetime.end.p0(i64 4, ptr %13) #5
  call void @llvm.lifetime.end.p0(i64 8, ptr %12) #5
  call void @llvm.lifetime.end.p0(i64 8, ptr %11) #5
  call void @llvm.lifetime.end.p0(i64 8, ptr %10) #5
  call void @llvm.lifetime.end.p0(i64 8, ptr %9) #5
  ret i32 %62
}

; Function Attrs: nounwind uwtable
define internal i32 @re_encrypt_key(ptr noundef %0, ptr noundef %1, i32 noundef %2) #0 {
  %4 = alloca ptr, align 8
  %5 = alloca ptr, align 8
  %6 = alloca i32, align 4
  %7 = alloca %struct.CallbackData, align 4
  %8 = alloca i32, align 4
  %9 = alloca ptr, align 8
  %10 = alloca ptr, align 8
  %11 = alloca i32, align 4
  store ptr %0, ptr %4, align 8, !tbaa !18
  store ptr %1, ptr %5, align 8, !tbaa !20
  store i32 %2, ptr %6, align 4, !tbaa !9
  call void @llvm.lifetime.start.p0(i64 8, ptr %7) #5
  call void @llvm.lifetime.start.p0(i64 4, ptr %8) #5
  store i32 0, ptr %8, align 4, !tbaa !9
  call void @llvm.lifetime.start.p0(i64 8, ptr %9) #5
  store ptr null, ptr %9, align 8, !tbaa !22
  call void @llvm.lifetime.start.p0(i64 8, ptr %10) #5
  store ptr null, ptr %10, align 8, !tbaa !4
  call void @llvm.lifetime.start.p0(i64 4, ptr %11) #5
  store i32 0, ptr %11, align 4, !tbaa !9
  %12 = load ptr, ptr %4, align 8, !tbaa !18
  %13 = call i32 @test_ptr(ptr noundef @.str.16, i32 noundef 163, ptr noundef @.str.36, ptr noundef %12)
  %14 = icmp ne i32 %13, 0
  br i1 %14, label %16, label %15

15:                                               ; preds = %3
  br label %74

16:                                               ; preds = %3
  %17 = load ptr, ptr %5, align 8, !tbaa !20
  %18 = call i32 @test_ptr(ptr noundef @.str.16, i32 noundef 165, ptr noundef @.str.37, ptr noundef %17)
  %19 = icmp ne i32 %18, 0
  br i1 %19, label %21, label %20

20:                                               ; preds = %16
  br label %74

21:                                               ; preds = %16
  %22 = call ptr @BIO_s_mem()
  %23 = call ptr @BIO_new(ptr noundef %22)
  store ptr %23, ptr %10, align 8, !tbaa !4
  %24 = call i32 @test_ptr(ptr noundef @.str.16, i32 noundef 167, ptr noundef @.str.38, ptr noundef %23)
  %25 = icmp ne i32 %24, 0
  br i1 %25, label %27, label %26

26:                                               ; preds = %21
  br label %74

27:                                               ; preds = %21
  %28 = getelementptr inbounds nuw %struct.CallbackData, ptr %7, i32 0, i32 0
  store i8 112, ptr %28, align 4, !tbaa !24
  %29 = getelementptr inbounds nuw %struct.CallbackData, ptr %7, i32 0, i32 1
  store i32 0, ptr %29, align 4, !tbaa !26
  %30 = load i32, ptr %6, align 4, !tbaa !9
  switch i32 %30, label %41 [
    i32 0, label %31
    i32 1, label %36
  ]

31:                                               ; preds = %27
  %32 = load ptr, ptr %10, align 8, !tbaa !4
  %33 = load ptr, ptr @original_pkey, align 8, !tbaa !16
  %34 = call ptr @EVP_aes_256_cbc()
  %35 = call i32 @PEM_write_bio_PrivateKey(ptr noundef %32, ptr noundef %33, ptr noundef %34, ptr noundef null, i32 noundef 0, ptr noundef @write_callback, ptr noundef %7)
  store i32 %35, ptr %8, align 4, !tbaa !9
  br label %41

36:                                               ; preds = %27
  %37 = load ptr, ptr %10, align 8, !tbaa !4
  %38 = load ptr, ptr @original_pkey, align 8, !tbaa !16
  %39 = call ptr @EVP_aes_256_cbc()
  %40 = call i32 @i2d_PKCS8PrivateKey_bio(ptr noundef %37, ptr noundef %38, ptr noundef %39, ptr noundef null, i32 noundef 0, ptr noundef @write_callback, ptr noundef %7)
  store i32 %40, ptr %8, align 4, !tbaa !9
  br label %41

41:                                               ; preds = %27, %36, %31
  %42 = load i32, ptr %8, align 4, !tbaa !9
  %43 = call i32 @test_int_ne(ptr noundef @.str.16, i32 noundef 181, ptr noundef @.str.39, ptr noundef @.str.40, i32 noundef %42, i32 noundef 0)
  %44 = icmp ne i32 %43, 0
  br i1 %44, label %46, label %45

45:                                               ; preds = %41
  br label %74

46:                                               ; preds = %41
  %47 = getelementptr inbounds nuw %struct.CallbackData, ptr %7, i32 0, i32 0
  %48 = load i8, ptr %47, align 4, !tbaa !24
  %49 = call i32 @test_char_eq(ptr noundef @.str.16, i32 noundef 183, ptr noundef @.str.41, ptr noundef @.str.42, i8 noundef signext %48, i8 noundef signext 112)
  %50 = icmp ne i32 %49, 0
  br i1 %50, label %52, label %51

51:                                               ; preds = %46
  br label %74

52:                                               ; preds = %46
  %53 = getelementptr inbounds nuw %struct.CallbackData, ptr %7, i32 0, i32 1
  %54 = load i32, ptr %53, align 4, !tbaa !26
  %55 = call i32 @test_int_eq(ptr noundef @.str.16, i32 noundef 185, ptr noundef @.str.43, ptr noundef @.str.44, i32 noundef %54, i32 noundef 1)
  %56 = icmp ne i32 %55, 0
  br i1 %56, label %58, label %57

57:                                               ; preds = %52
  br label %74

58:                                               ; preds = %52
  %59 = load ptr, ptr %10, align 8, !tbaa !4
  %60 = load ptr, ptr %4, align 8, !tbaa !18
  %61 = call i64 @BIO_ctrl(ptr noundef %59, i32 noundef 3, i64 noundef 0, ptr noundef %60)
  %62 = trunc i64 %61 to i32
  %63 = load ptr, ptr %5, align 8, !tbaa !20
  store i32 %62, ptr %63, align 4, !tbaa !9
  %64 = load ptr, ptr %10, align 8, !tbaa !4
  %65 = call i64 @BIO_ctrl(ptr noundef %64, i32 noundef 115, i64 noundef 0, ptr noundef %9)
  %66 = load ptr, ptr %10, align 8, !tbaa !4
  %67 = call i64 @BIO_ctrl(ptr noundef %66, i32 noundef 9, i64 noundef 0, ptr noundef null)
  %68 = trunc i64 %67 to i32
  %69 = icmp ne i32 %68, 0
  br i1 %69, label %71, label %70

70:                                               ; preds = %58
  br label %74

71:                                               ; preds = %58
  %72 = load ptr, ptr %9, align 8, !tbaa !22
  %73 = getelementptr inbounds nuw %struct.buf_mem_st, ptr %72, i32 0, i32 1
  store ptr null, ptr %73, align 8, !tbaa !27
  store i32 1, ptr %11, align 4, !tbaa !9
  br label %74

74:                                               ; preds = %71, %70, %57, %51, %45, %26, %20, %15
  %75 = load ptr, ptr %9, align 8, !tbaa !22
  call void @BUF_MEM_free(ptr noundef %75)
  %76 = load ptr, ptr %10, align 8, !tbaa !4
  %77 = call i32 @BIO_free(ptr noundef %76)
  %78 = load i32, ptr %11, align 4, !tbaa !9
  call void @llvm.lifetime.end.p0(i64 4, ptr %11) #5
  call void @llvm.lifetime.end.p0(i64 8, ptr %10) #5
  call void @llvm.lifetime.end.p0(i64 8, ptr %9) #5
  call void @llvm.lifetime.end.p0(i64 4, ptr %8) #5
  call void @llvm.lifetime.end.p0(i64 8, ptr %7) #5
  ret i32 %78
}

; Function Attrs: nounwind uwtable
define internal i32 @full_cycle_test(i32 noundef %0, i32 noundef %1, i32 noundef %2, i32 noundef %3) #0 {
  %5 = alloca i32, align 4
  %6 = alloca i32, align 4
  %7 = alloca i32, align 4
  %8 = alloca i32, align 4
  %9 = alloca ptr, align 8
  %10 = alloca i32, align 4
  %11 = alloca i32, align 4
  store i32 %0, ptr %5, align 4, !tbaa !9
  store i32 %1, ptr %6, align 4, !tbaa !9
  store i32 %2, ptr %7, align 4, !tbaa !9
  store i32 %3, ptr %8, align 4, !tbaa !9
  call void @llvm.lifetime.start.p0(i64 8, ptr %9) #5
  store ptr null, ptr %9, align 8, !tbaa !11
  call void @llvm.lifetime.start.p0(i64 4, ptr %10) #5
  store i32 0, ptr %10, align 4, !tbaa !9
  call void @llvm.lifetime.start.p0(i64 4, ptr %11) #5
  store i32 0, ptr %11, align 4, !tbaa !9
  %12 = load i32, ptr %6, align 4, !tbaa !9
  store i32 %12, ptr @callback_test, align 4, !tbaa !9
  %13 = load i32, ptr %5, align 4, !tbaa !9
  %14 = call i32 @re_encrypt_key(ptr noundef %9, ptr noundef %10, i32 noundef %13)
  %15 = icmp ne i32 %14, 0
  br i1 %15, label %17, label %16

16:                                               ; preds = %4
  br label %27

17:                                               ; preds = %4
  %18 = load i32, ptr %7, align 4, !tbaa !9
  store i32 %18, ptr @callback_test, align 4, !tbaa !9
  %19 = load ptr, ptr %9, align 8, !tbaa !11
  %20 = load i32, ptr %10, align 4, !tbaa !9
  %21 = load i32, ptr %5, align 4, !tbaa !9
  %22 = load i32, ptr %8, align 4, !tbaa !9
  %23 = call i32 @decrypt_key(ptr noundef %19, i32 noundef %20, i32 noundef %21, i32 noundef %22)
  %24 = icmp ne i32 %23, 0
  br i1 %24, label %26, label %25

25:                                               ; preds = %17
  br label %27

26:                                               ; preds = %17
  store i32 1, ptr %11, align 4, !tbaa !9
  br label %27

27:                                               ; preds = %26, %25, %16
  %28 = load ptr, ptr %9, align 8, !tbaa !11
  call void @CRYPTO_free(ptr noundef %28, ptr noundef @.str.16, i32 noundef 256)
  %29 = load i32, ptr %11, align 4, !tbaa !9
  call void @llvm.lifetime.end.p0(i64 4, ptr %11) #5
  call void @llvm.lifetime.end.p0(i64 4, ptr %10) #5
  call void @llvm.lifetime.end.p0(i64 8, ptr %9) #5
  ret i32 %29
}