; Function Attrs: nounwind uwtable
define internal fastcc range(i32 0, 2) i32 @full_cycle_test(i32 noundef range(i32 0, 2) %0, i32 noundef range(i32 1, 7) %1, i32 noundef range(i32 0, 8) %2, i32 noundef range(i32 0, 2) %3) unnamed_addr #1 {
  %5 = alloca %struct.CallbackData, align 4
  %6 = alloca ptr, align 8
  %7 = alloca %struct.CallbackData, align 4
  %8 = alloca ptr, align 8
  %9 = alloca ptr, align 8
  %10 = alloca i32, align 4
  call void @llvm.lifetime.start.p0(i64 8, ptr nonnull %9) #7
  store ptr null, ptr %9, align 8, !tbaa !6
  call void @llvm.lifetime.start.p0(i64 4, ptr nonnull %10) #7
  store i32 0, ptr %10, align 4, !tbaa !13
  store i32 %1, ptr @callback_test, align 4, !tbaa !13
  call void @llvm.lifetime.start.p0(i64 8, ptr nonnull %7) #7
  call void @llvm.lifetime.start.p0(i64 8, ptr nonnull %8) #7
  store ptr null, ptr %8, align 8, !tbaa !15
  %11 = call i32 @test_ptr(ptr noundef nonnull @.str.16, i32 noundef 163, ptr noundef nonnull @.str.36, ptr noundef nonnull %9) #7
  %.not.i = icmp eq i32 %11, 0
  br i1 %.not.i, label %re_encrypt_key.exit, label %12

12:                                               ; preds = %4
  %13 = call i32 @test_ptr(ptr noundef nonnull @.str.16, i32 noundef 165, ptr noundef nonnull @.str.37, ptr noundef nonnull %10) #7
  %.not14.i = icmp eq i32 %13, 0
  br i1 %.not14.i, label %re_encrypt_key.exit, label %14

14:                                               ; preds = %12
  %15 = call ptr @BIO_s_mem() #7
  %16 = call ptr @BIO_new(ptr noundef %15) #7
  %17 = call i32 @test_ptr(ptr noundef nonnull @.str.16, i32 noundef 167, ptr noundef nonnull @.str.38, ptr noundef %16) #7
  %.not15.i = icmp eq i32 %17, 0
  br i1 %.not15.i, label %re_encrypt_key.exit, label %18

18:                                               ; preds = %14
  store i8 112, ptr %7, align 4, !tbaa !17
  %19 = getelementptr inbounds nuw i8, ptr %7, i64 4
  store i32 0, ptr %19, align 4, !tbaa !19
  %trunc.i = trunc nuw i32 %0 to i1
  %20 = load ptr, ptr @original_pkey, align 8, !tbaa !11
  %21 = call ptr @EVP_aes_256_cbc() #7
  br i1 %trunc.i, label %24, label %22

22:                                               ; preds = %18
  %23 = call i32 @PEM_write_bio_PrivateKey(ptr noundef %16, ptr noundef %20, ptr noundef %21, ptr noundef null, i32 noundef 0, ptr noundef nonnull @write_callback, ptr noundef nonnull %7) #7
  br label %26

24:                                               ; preds = %18
  %25 = call i32 @i2d_PKCS8PrivateKey_bio(ptr noundef %16, ptr noundef %20, ptr noundef %21, ptr noundef null, i32 noundef 0, ptr noundef nonnull @write_callback, ptr noundef nonnull %7) #7
  br label %26

26:                                               ; preds = %24, %22
  %.013.i = phi i32 [ %25, %24 ], [ %23, %22 ]
  %27 = call i32 @test_int_ne(ptr noundef nonnull @.str.16, i32 noundef 181, ptr noundef nonnull @.str.39, ptr noundef nonnull @.str.40, i32 noundef %.013.i, i32 noundef 0) #7
  %.not16.i = icmp eq i32 %27, 0
  br i1 %.not16.i, label %re_encrypt_key.exit, label %28

28:                                               ; preds = %26
  %29 = load i8, ptr %7, align 4, !tbaa !17
  %30 = call i32 @test_char_eq(ptr noundef nonnull @.str.16, i32 noundef 183, ptr noundef nonnull @.str.41, ptr noundef nonnull @.str.42, i8 noundef signext %29, i8 noundef signext 112) #7
  %.not17.i = icmp eq i32 %30, 0
  br i1 %.not17.i, label %re_encrypt_key.exit, label %31

31:                                               ; preds = %28
  %32 = load i32, ptr %19, align 4, !tbaa !19
  %33 = call i32 @test_int_eq(ptr noundef nonnull @.str.16, i32 noundef 185, ptr noundef nonnull @.str.43, ptr noundef nonnull @.str.44, i32 noundef %32, i32 noundef 1) #7
  %.not18.i = icmp eq i32 %33, 0
  br i1 %.not18.i, label %re_encrypt_key.exit, label %34

34:                                               ; preds = %31
  %35 = call i64 @BIO_ctrl(ptr noundef %16, i32 noundef 3, i64 noundef 0, ptr noundef nonnull %9) #7
  %36 = trunc i64 %35 to i32
  store i32 %36, ptr %10, align 4, !tbaa !13
  %37 = call i64 @BIO_ctrl(ptr noundef %16, i32 noundef 115, i64 noundef 0, ptr noundef nonnull %8) #7
  %38 = call i64 @BIO_ctrl(ptr noundef %16, i32 noundef 9, i64 noundef 0, ptr noundef null) #7
  %39 = and i64 %38, 4294967295
  %.not19.i = icmp eq i64 %39, 0
  %.pre.i = load ptr, ptr %8, align 8, !tbaa !15
  br i1 %.not19.i, label %re_encrypt_key.exit, label %.critedge

.critedge:                                        ; preds = %34
  %40 = getelementptr inbounds nuw i8, ptr %.pre.i, i64 8
  store ptr null, ptr %40, align 8, !tbaa !20
  call void @BUF_MEM_free(ptr noundef %.pre.i) #7
  %41 = call i32 @BIO_free(ptr noundef %16) #7
  call void @llvm.lifetime.end.p0(i64 8, ptr nonnull %8) #7
  call void @llvm.lifetime.end.p0(i64 8, ptr nonnull %7) #7
  store i32 %2, ptr @callback_test, align 4, !tbaa !13
  %42 = load ptr, ptr %9, align 8, !tbaa !6
  %43 = load i32, ptr %10, align 4, !tbaa !13
  call void @llvm.lifetime.start.p0(i64 8, ptr nonnull %5) #7
  call void @llvm.lifetime.start.p0(i64 8, ptr nonnull %6) #7
  store ptr null, ptr %6, align 8, !tbaa !11
  %44 = call ptr @BIO_new_mem_buf(ptr noundef %42, i32 noundef %43) #7
  %45 = call i32 @test_ptr(ptr noundef nonnull @.str.16, i32 noundef 209, ptr noundef nonnull @.str.50, ptr noundef %44) #7
  %.not.i7 = icmp eq i32 %45, 0
  br i1 %.not.i7, label %decrypt_key.exit, label %48

re_encrypt_key.exit:                              ; preds = %4, %12, %14, %26, %28, %31, %34
  %46 = phi ptr [ %.pre.i, %34 ], [ null, %31 ], [ null, %28 ], [ null, %26 ], [ null, %14 ], [ null, %12 ], [ null, %4 ]
  %.012.i = phi ptr [ %16, %34 ], [ %16, %31 ], [ %16, %28 ], [ %16, %26 ], [ %16, %14 ], [ null, %12 ], [ null, %4 ]
  call void @BUF_MEM_free(ptr noundef %46) #7
  %47 = call i32 @BIO_free(ptr noundef %.012.i) #7
  call void @llvm.lifetime.end.p0(i64 8, ptr nonnull %8) #7
  call void @llvm.lifetime.end.p0(i64 8, ptr nonnull %7) #7
  br label %68

48:                                               ; preds = %.critedge
  store i8 112, ptr %5, align 4, !tbaa !17
  %49 = getelementptr inbounds nuw i8, ptr %5, i64 4
  store i32 0, ptr %49, align 4, !tbaa !19
  br i1 %trunc.i, label %52, label %50

50:                                               ; preds = %48
  %51 = call ptr @PEM_read_bio_PrivateKey(ptr noundef %44, ptr noundef nonnull %6, ptr noundef nonnull @read_callback, ptr noundef nonnull %5) #7
  br label %54

52:                                               ; preds = %48
  %53 = call ptr @d2i_PKCS8PrivateKey_bio(ptr noundef %44, ptr noundef nonnull %6, ptr noundef nonnull @read_callback, ptr noundef nonnull %5) #7
  br label %54

54:                                               ; preds = %52, %50
  %.09.i = phi ptr [ %53, %52 ], [ %51, %50 ]
  %.not10.i = icmp eq i32 %3, 0
  br i1 %.not10.i, label %57, label %55

55:                                               ; preds = %54
  %56 = call i32 @test_ptr(ptr noundef nonnull @.str.16, i32 noundef 222, ptr noundef nonnull @.str.51, ptr noundef %.09.i) #7
  %.not12.i = icmp eq i32 %56, 0
  br i1 %.not12.i, label %decrypt_key.exit, label %59

57:                                               ; preds = %54
  %58 = call i32 @test_ptr_null(ptr noundef nonnull @.str.16, i32 noundef 225, ptr noundef nonnull @.str.51, ptr noundef %.09.i) #7
  %.not11.i = icmp eq i32 %58, 0
  br i1 %.not11.i, label %decrypt_key.exit, label %59

59:                                               ; preds = %57, %55
  %60 = load i8, ptr %5, align 4, !tbaa !17
  %61 = call i32 @test_char_eq(ptr noundef nonnull @.str.16, i32 noundef 228, ptr noundef nonnull @.str.41, ptr noundef nonnull @.str.42, i8 noundef signext %60, i8 noundef signext 112) #7
  %.not13.i = icmp eq i32 %61, 0
  br i1 %.not13.i, label %decrypt_key.exit, label %62

62:                                               ; preds = %59
  %63 = load i32, ptr %49, align 4, !tbaa !19
  %64 = call i32 @test_int_eq(ptr noundef nonnull @.str.16, i32 noundef 230, ptr noundef nonnull @.str.43, ptr noundef nonnull @.str.44, i32 noundef %63, i32 noundef 1) #7
  %.fr = freeze i32 %64
  %.not14.i9.not = icmp ne i32 %.fr, 0
  %65 = zext i1 %.not14.i9.not to i32
  br label %decrypt_key.exit

decrypt_key.exit:                                 ; preds = %.critedge, %55, %57, %59, %62
  %.0.i10 = phi i32 [ 0, %59 ], [ 0, %55 ], [ 0, %57 ], [ 0, %.critedge ], [ %65, %62 ]
  %66 = load ptr, ptr %6, align 8, !tbaa !11
  call void @EVP_PKEY_free(ptr noundef %66) #7
  %67 = call i32 @BIO_free(ptr noundef %44) #7
  call void @llvm.lifetime.end.p0(i64 8, ptr nonnull %6) #7
  call void @llvm.lifetime.end.p0(i64 8, ptr nonnull %5) #7
  br label %68

68:                                               ; preds = %re_encrypt_key.exit, %decrypt_key.exit
  %.0 = phi i32 [ 0, %re_encrypt_key.exit ], [ %.0.i10, %decrypt_key.exit ]
  %69 = load ptr, ptr %9, align 8, !tbaa !6
  call void @CRYPTO_free(ptr noundef %69, ptr noundef nonnull @.str.16, i32 noundef 256) #7
  call void @llvm.lifetime.end.p0(i64 4, ptr nonnull %10) #7
  call void @llvm.lifetime.end.p0(i64 8, ptr nonnull %9) #7
  ret i32 %.0
}